target datalayout = "e-m:e-p270:32:32-p271:32:32-p272:64:64-i64:64-i128:128-f80:128-n8:16:32:64-S128"
target triple = "x86_64-pc-linux-gnu"

%"class.duckdb_re2::Regexp" = type { i8, i8, i16, i16, i16, %union.anon, ptr, %union.anon.0 }
%union.anon = type { ptr }
%union.anon.0 = type { %struct.anon.1 }
%struct.anon.1 = type { i32, ptr }
%struct.anon = type { i32, i32 }

; Function Attrs: mustprogress nounwind uwtable
define linkonce_odr hidden noundef i32 @_ZN10duckdb_re26Regexp3minEv(ptr noundef nonnull align 8 dereferenceable(40) %0) #2 comdat align 2 {
  %2 = alloca ptr, align 8
  store ptr %0, ptr %2, align 8, !tbaa !8
  %3 = load ptr, ptr %2, align 8
  %4 = getelementptr inbounds nuw %"class.duckdb_re2::Regexp", ptr %3, i32 0, i32 7
  %5 = getelementptr inbounds nuw %struct.anon, ptr %4, i32 0, i32 1
  %6 = load i32, ptr %5, align 4, !tbaa !24
  ret i32 %6
}

; Function Attrs: mustprogress nounwind uwtable
define linkonce_odr hidden noundef i32 @_ZN10duckdb_re26Regexp2opEv(ptr noundef nonnull align 8 dereferenceable(40) %0) #2 comdat align 2 {
  %2 = alloca ptr, align 8
  store ptr %0, ptr %2, align 8, !tbaa !8
  %3 = load ptr, ptr %2, align 8
  %4 = getelementptr inbounds nuw %"class.duckdb_re2::Regexp", ptr %3, i32 0, i32 0
  %5 = load i8, ptr %4, align 8, !tbaa !20
  %6 = zext i8 %5 to i32
  ret i32 %6
}

; Function Attrs: mustprogress uwtable
define hidden noundef zeroext i1 @_ZN10duckdb_re217EmptyStringWalker9PostVisitEPNS_6RegexpEbbPbi(ptr noundef nonnull align 8 dereferenceable(96) %0, ptr noundef %1, i1 noundef zeroext %2, i1 noundef zeroext %3, ptr noundef %4, i32 noundef %5) unnamed_addr #0 align 2 {
  %7 = alloca i1, align 1
  %8 = alloca ptr, align 8
  %9 = alloca ptr, align 8
  %10 = alloca i8, align 1
  %11 = alloca i8, align 1
  %12 = alloca ptr, align 8
  %13 = alloca i32, align 4
  %14 = alloca i32, align 4
  %15 = alloca i32, align 4
  %16 = alloca i32, align 4
  store ptr %0, ptr %8, align 8, !tbaa !43
  store ptr %1, ptr %9, align 8, !tbaa !8
  %17 = zext i1 %2 to i8
  store i8 %17, ptr %10, align 1, !tbaa !10
  %18 = zext i1 %3 to i8
  store i8 %18, ptr %11, align 1, !tbaa !10
  store ptr %4, ptr %12, align 8, !tbaa !12
  store i32 %5, ptr %13, align 4, !tbaa !14
  %19 = load ptr, ptr %9, align 8, !tbaa !8
  %20 = call noundef i32 @_ZN10duckdb_re26Regexp2opEv(ptr noundef nonnull align 8 dereferenceable(40) %19)
  switch i32 %20, label %81 [
    i32 1, label %21
    i32 3, label %21
    i32 12, label %21
    i32 13, label %21
    i32 20, label %21
    i32 4, label %21
    i32 2, label %22
    i32 14, label %22
    i32 15, label %22
    i32 17, label %22
    i32 16, label %22
    i32 18, label %22
    i32 19, label %22
    i32 7, label %22
    i32 9, label %22
    i32 21, label %22
    i32 5, label %23
    i32 6, label %44
    i32 8, label %65
    i32 11, label %65
    i32 10, label %70
  ]

21:                                               ; preds = %6, %6, %6, %6, %6, %6
  store i1 false, ptr %7, align 1
  br label %82

22:                                               ; preds = %6, %6, %6, %6, %6, %6, %6, %6, %6, %6
  store i1 true, ptr %7, align 1
  br label %82

23:                                               ; preds = %6
  call void @llvm.lifetime.start.p0(i64 4, ptr %14) #16
  store i32 0, ptr %14, align 4, !tbaa !14
  br label %24

24:                                               ; preds = %38, %23
  %25 = load i32, ptr %14, align 4, !tbaa !14
  %26 = load i32, ptr %13, align 4, !tbaa !14
  %27 = icmp slt i32 %25, %26
  br i1 %27, label %29, label %28

28:                                               ; preds = %24
  store i32 3, ptr %15, align 4
  br label %41

29:                                               ; preds = %24
  %30 = load ptr, ptr %12, align 8, !tbaa !12
  %31 = load i32, ptr %14, align 4, !tbaa !14
  %32 = sext i32 %31 to i64
  %33 = getelementptr inbounds i8, ptr %30, i64 %32
  %34 = load i8, ptr %33, align 1, !tbaa !10, !range !16, !noundef !17
  %35 = trunc i8 %34 to i1
  br i1 %35, label %37, label %36

36:                                               ; preds = %29
  store i1 false, ptr %7, align 1
  store i32 1, ptr %15, align 4
  br label %41

37:                                               ; preds = %29
  br label %38

38:                                               ; preds = %37
  %39 = load i32, ptr %14, align 4, !tbaa !14
  %40 = add nsw i32 %39, 1
  store i32 %40, ptr %14, align 4, !tbaa !14
  br label %24, !llvm.loop !45

41:                                               ; preds = %36, %28
  call void @llvm.lifetime.end.p0(i64 4, ptr %14) #16
  %42 = load i32, ptr %15, align 4
  switch i32 %42, label %84 [
    i32 3, label %43
    i32 1, label %82
  ]

43:                                               ; preds = %41
  store i1 true, ptr %7, align 1
  br label %82

44:                                               ; preds = %6
  call void @llvm.lifetime.start.p0(i64 4, ptr %16) #16
  store i32 0, ptr %16, align 4, !tbaa !14
  br label %45

45:                                               ; preds = %59, %44
  %46 = load i32, ptr %16, align 4, !tbaa !14
  %47 = load i32, ptr %13, align 4, !tbaa !14
  %48 = icmp slt i32 %46, %47
  br i1 %48, label %50, label %49

49:                                               ; preds = %45
  store i32 6, ptr %15, align 4
  br label %62

50:                                               ; preds = %45
  %51 = load ptr, ptr %12, align 8, !tbaa !12
  %52 = load i32, ptr %16, align 4, !tbaa !14
  %53 = sext i32 %52 to i64
  %54 = getelementptr inbounds i8, ptr %51, i64 %53
  %55 = load i8, ptr %54, align 1, !tbaa !10, !range !16, !noundef !17
  %56 = trunc i8 %55 to i1
  br i1 %56, label %57, label %58

57:                                               ; preds = %50
  store i1 true, ptr %7, align 1
  store i32 1, ptr %15, align 4
  br label %62

58:                                               ; preds = %50
  br label %59

59:                                               ; preds = %58
  %60 = load i32, ptr %16, align 4, !tbaa !14
  %61 = add nsw i32 %60, 1
  store i32 %61, ptr %16, align 4, !tbaa !14
  br label %45, !llvm.loop !46

62:                                               ; preds = %57, %49
  call void @llvm.lifetime.end.p0(i64 4, ptr %16) #16
  %63 = load i32, ptr %15, align 4
  switch i32 %63, label %84 [
    i32 6, label %64
    i32 1, label %82
  ]

64:                                               ; preds = %62
  store i1 false, ptr %7, align 1
  br label %82

65:                                               ; preds = %6, %6
  %66 = load ptr, ptr %12, align 8, !tbaa !12
  %67 = getelementptr inbounds i8, ptr %66, i64 0
  %68 = load i8, ptr %67, align 1, !tbaa !10, !range !16, !noundef !17
  %69 = trunc i8 %68 to i1
  store i1 %69, ptr %7, align 1
  br label %82

70:                                               ; preds = %6
  %71 = load ptr, ptr %12, align 8, !tbaa !12
  %72 = getelementptr inbounds i8, ptr %71, i64 0
  %73 = load i8, ptr %72, align 1, !tbaa !10, !range !16, !noundef !17
  %74 = trunc i8 %73 to i1
  br i1 %74, label %79, label %75

75:                                               ; preds = %70
  %76 = load ptr, ptr %9, align 8, !tbaa !8
  %77 = call noundef i32 @_ZN10duckdb_re26Regexp3minEv(ptr noundef nonnull align 8 dereferenceable(40) %76)
  %78 = icmp eq i32 %77, 0
  br label %79

79:                                               ; preds = %75, %70
  %80 = phi i1 [ true, %70 ], [ %78, %75 ]
  store i1 %80, ptr %7, align 1
  br label %82

81:                                               ; preds = %6
  store i1 false, ptr %7, align 1
  br label %82

82:                                               ; preds = %81, %79, %65, %64, %62, %43, %41, %22, %21
  %83 = load i1, ptr %7, align 1
  ret i1 %83

84:                                               ; preds = %62, %41
  unreachable
}